target datalayout = "e-m:e-p270:32:32-p271:32:32-p272:64:64-i64:64-i128:128-f80:128-n8:16:32:64-S128"
target triple = "x86_64-pc-linux-gnu"

%"class.google::protobuf::io::ZeroCopyOutputStream" = type { ptr }
%"class.std::unique_ptr" = type { %"struct.std::__uniq_ptr_data" }
%"struct.std::__uniq_ptr_data" = type { %"class.std::__uniq_ptr_impl" }
%"class.std::__uniq_ptr_impl" = type { %"class.std::tuple" }
%"class.std::tuple" = type { %"struct.std::_Tuple_impl" }
%"struct.std::_Tuple_impl" = type { %"struct.std::_Head_base.1" }
%"struct.std::_Head_base.1" = type { ptr }
%"class.google::protobuf::io::CopyingOutputStreamAdaptor" = type { %"class.google::protobuf::io::ZeroCopyOutputStream", ptr, i8, i8, i64, %"class.std::unique_ptr", i32, i32 }

; Function Attrs: mustprogress nounwind uwtable
define hidden noundef i64 @_ZNK6google8protobuf2io26CopyingOutputStreamAdaptor9ByteCountEv(ptr noundef nonnull align 8 dereferenceable(48) %0) unnamed_addr #5 align 2 {
  %2 = alloca ptr, align 8
  store ptr %0, ptr %2, align 8, !tbaa !82
  %3 = load ptr, ptr %2, align 8
  %4 = getelementptr inbounds nuw %"class.google::protobuf::io::CopyingOutputStreamAdaptor", ptr %3, i32 0, i32 4
  %5 = load i64, ptr %4, align 8, !tbaa !90
  %6 = getelementptr inbounds nuw %"class.google::protobuf::io::CopyingOutputStreamAdaptor", ptr %3, i32 0, i32 7
  %7 = load i32, ptr %6, align 4, !tbaa !92
  %8 = sext i32 %7 to i64
  %9 = add nsw i64 %5, %8
  ret i64 %9
}